target datalayout = "e-m:e-p270:32:32-p271:32:32-p272:64:64-i64:64-i128:128-f80:128-n8:16:32:64-S128"
target triple = "x86_64-pc-linux-gnu"

%struct.FunctionCallInfoBaseData = type { ptr, ptr, ptr, i32, i8, i16, [0 x %struct.NullableDatum] }
%struct.NullableDatum = type { i64, i8 }
%union.anon.1 = type { double }
%struct.Interval = type { i64, i32, i32 }

; Function Attrs: inlinehint nounwind uwtable
define internal i64 @Int64GetDatum(i64 noundef %0) #3 {
  %2 = alloca i64, align 8
  store i64 %0, ptr %2, align 8
  %3 = load i64, ptr %2, align 8
  ret i64 %3
}

; Function Attrs: inlinehint nounwind uwtable
define internal ptr @DatumGetPointer(i64 noundef %0) #3 {
  %2 = alloca i64, align 8
  store i64 %0, ptr %2, align 8
  %3 = load i64, ptr %2, align 8
  %4 = inttoptr i64 %3 to ptr
  ret ptr %4
}

; Function Attrs: inlinehint nounwind uwtable
define internal i64 @Float8GetDatum(double noundef %0) #3 {
  %2 = alloca double, align 8
  %3 = alloca %union.anon.1, align 8
  store double %0, ptr %2, align 8
  call void @llvm.lifetime.start.p0(i64 8, ptr %3) #8
  %4 = load double, ptr %2, align 8
  store double %4, ptr %3, align 8
  %5 = load i64, ptr %3, align 8
  %6 = call i64 @Int64GetDatum(i64 noundef %5)
  call void @llvm.lifetime.end.p0(i64 8, ptr %3) #8
  ret i64 %6
}

; Function Attrs: inlinehint nounwind uwtable
define internal ptr @DatumGetIntervalP(i64 noundef %0) #3 {
  %2 = alloca i64, align 8
  store i64 %0, ptr %2, align 8
  %3 = load i64, ptr %2, align 8
  %4 = call ptr @DatumGetPointer(i64 noundef %3)
  ret ptr %4
}

; Function Attrs: nounwind uwtable
define dso_local i64 @brin_minmax_multi_distance_interval(ptr noundef %0) #0 {
  %2 = alloca ptr, align 8
  %3 = alloca double, align 8
  %4 = alloca ptr, align 8
  %5 = alloca ptr, align 8
  %6 = alloca i64, align 8
  %7 = alloca i64, align 8
  store ptr %0, ptr %2, align 8
  call void @llvm.lifetime.start.p0(i64 8, ptr %3) #8
  store double 0.000000e+00, ptr %3, align 8
  call void @llvm.lifetime.start.p0(i64 8, ptr %4) #8
  %8 = load ptr, ptr %2, align 8
  %9 = getelementptr inbounds nuw %struct.FunctionCallInfoBaseData, ptr %8, i32 0, i32 6
  %10 = getelementptr inbounds [0 x %struct.NullableDatum], ptr %9, i64 0, i64 0
  %11 = getelementptr inbounds nuw %struct.NullableDatum, ptr %10, i32 0, i32 0
  %12 = load i64, ptr %11, align 8
  %13 = call ptr @DatumGetIntervalP(i64 noundef %12)
  store ptr %13, ptr %4, align 8
  call void @llvm.lifetime.start.p0(i64 8, ptr %5) #8
  %14 = load ptr, ptr %2, align 8
  %15 = getelementptr inbounds nuw %struct.FunctionCallInfoBaseData, ptr %14, i32 0, i32 6
  %16 = getelementptr inbounds [0 x %struct.NullableDatum], ptr %15, i64 0, i64 1
  %17 = getelementptr inbounds nuw %struct.NullableDatum, ptr %16, i32 0, i32 0
  %18 = load i64, ptr %17, align 8
  %19 = call ptr @DatumGetIntervalP(i64 noundef %18)
  store ptr %19, ptr %5, align 8
  call void @llvm.lifetime.start.p0(i64 8, ptr %6) #8
  call void @llvm.lifetime.start.p0(i64 8, ptr %7) #8
  %20 = load ptr, ptr %5, align 8
  %21 = getelementptr inbounds nuw %struct.Interval, ptr %20, i32 0, i32 0
  %22 = load i64, ptr %21, align 8
  %23 = srem i64 %22, 86400000000
  %24 = load ptr, ptr %4, align 8
  %25 = getelementptr inbounds nuw %struct.Interval, ptr %24, i32 0, i32 0
  %26 = load i64, ptr %25, align 8
  %27 = srem i64 %26, 86400000000
  %28 = sub i64 %23, %27
  store i64 %28, ptr %6, align 8
  %29 = load ptr, ptr %5, align 8
  %30 = getelementptr inbounds nuw %struct.Interval, ptr %29, i32 0, i32 0
  %31 = load i64, ptr %30, align 8
  %32 = sdiv i64 %31, 86400000000
  %33 = load ptr, ptr %4, align 8
  %34 = getelementptr inbounds nuw %struct.Interval, ptr %33, i32 0, i32 0
  %35 = load i64, ptr %34, align 8
  %36 = sdiv i64 %35, 86400000000
  %37 = sub i64 %32, %36
  store i64 %37, ptr %7, align 8
  %38 = load ptr, ptr %5, align 8
  %39 = getelementptr inbounds nuw %struct.Interval, ptr %38, i32 0, i32 1
  %40 = load i32, ptr %39, align 8
  %41 = sext i32 %40 to i64
  %42 = load ptr, ptr %4, align 8
  %43 = getelementptr inbounds nuw %struct.Interval, ptr %42, i32 0, i32 1
  %44 = load i32, ptr %43, align 8
  %45 = sext i32 %44 to i64
  %46 = sub i64 %41, %45
  %47 = load i64, ptr %7, align 8
  %48 = add i64 %47, %46
  store i64 %48, ptr %7, align 8
  %49 = load ptr, ptr %5, align 8
  %50 = getelementptr inbounds nuw %struct.Interval, ptr %49, i32 0, i32 2
  %51 = load i32, ptr %50, align 4
  %52 = sext i32 %51 to i64
  %53 = load ptr, ptr %4, align 8
  %54 = getelementptr inbounds nuw %struct.Interval, ptr %53, i32 0, i32 2
  %55 = load i32, ptr %54, align 4
  %56 = sext i32 %55 to i64
  %57 = sub i64 %52, %56
  %58 = mul i64 %57, 30
  %59 = load i64, ptr %7, align 8
  %60 = add i64 %59, %58
  store i64 %60, ptr %7, align 8
  %61 = load i64, ptr %7, align 8
  %62 = sitofp i64 %61 to double
  %63 = load i64, ptr %6, align 8
  %64 = sitofp i64 %63 to double
  %65 = fdiv double %64, 8.640000e+10
  %66 = fadd double %62, %65
  store double %66, ptr %3, align 8
  %67 = load double, ptr %3, align 8
  %68 = call i64 @Float8GetDatum(double noundef %67)
  call void @llvm.lifetime.end.p0(i64 8, ptr %7) #8
  call void @llvm.lifetime.end.p0(i64 8, ptr %6) #8
  call void @llvm.lifetime.end.p0(i64 8, ptr %5) #8
  call void @llvm.lifetime.end.p0(i64 8, ptr %4) #8
  call void @llvm.lifetime.end.p0(i64 8, ptr %3) #8
  ret i64 %68
}