; Function Attrs: mustprogress nofree norecurse nosync nounwind willreturn memory(read, inaccessiblemem: none) uwtable
define dso_local i64 @brin_minmax_multi_distance_interval(ptr noundef readonly captures(none) %0) local_unnamed_addr #4 {
  %2 = getelementptr inbounds nuw i8, ptr %0, i64 32
  %3 = load i64, ptr %2, align 8
  %4 = inttoptr i64 %3 to ptr
  %5 = getelementptr inbounds nuw i8, ptr %0, i64 48
  %6 = load i64, ptr %5, align 8
  %7 = inttoptr i64 %6 to ptr
  %8 = load i64, ptr %7, align 8
  %9 = srem i64 %8, 86400000000
  %10 = load i64, ptr %4, align 8
  %11 = srem i64 %10, 86400000000
  %12 = sub nsw i64 %9, %11
  %13 = sdiv i64 %8, 86400000000
  %.neg = sdiv i64 %10, -86400000000
  %14 = getelementptr inbounds nuw i8, ptr %7, i64 8
  %15 = load i32, ptr %14, align 8
  %16 = sext i32 %15 to i64
  %17 = getelementptr inbounds nuw i8, ptr %4, i64 8
  %18 = load i32, ptr %17, align 8
  %19 = sext i32 %18 to i64
  %20 = getelementptr inbounds nuw i8, ptr %7, i64 12
  %21 = load i32, ptr %20, align 4
  %22 = sext i32 %21 to i64
  %23 = getelementptr inbounds nuw i8, ptr %4, i64 12
  %24 = load i32, ptr %23, align 4
  %25 = sext i32 %24 to i64
  %26 = sub nsw i64 %22, %25
  %27 = mul nsw i64 %26, 30
  %28 = add nsw i64 %.neg, %13
  %29 = add nsw i64 %28, %16
  %30 = sub nsw i64 %29, %19
  %31 = add nsw i64 %30, %27
  %32 = sitofp i64 %31 to double
  %33 = sitofp i64 %12 to double
  %34 = fdiv double %33, 8.640000e+10
  %35 = fadd double %34, %32
  %36 = bitcast double %35 to i64
  ret i64 %36
}